; Function Attrs: nounwind sspstrong uwtable
define internal fastcc void @decode_year(i64 noundef %0, double noundef %1, ptr noundef nonnull writeonly captures(none) %2, ptr noundef nonnull writeonly captures(none) %3) unnamed_addr #0 {
  %5 = fcmp olt double %1, 0.000000e+00
  %6 = select i1 %5, i32 584400, i32 584388
  %7 = and i64 %0, 1
  %.not46 = icmp eq i64 %7, 0
  br i1 %.not46, label %.critedge, label %8

8:                                                ; preds = %4
  %9 = ashr i64 %0, 1
  %10 = icmp sgt i64 %9, 4611686018427383190
  br i1 %10, label %.critedge, label %11

11:                                               ; preds = %8
  %12 = add nsw i64 %9, 4712
  %13 = icmp slt i64 %9, -4712
  br i1 %13, label %20, label %14

14:                                               ; preds = %11
  %15 = zext nneg i32 %6 to i64
  %16 = udiv i64 %12, %15
  %17 = urem i64 %12, %15
  %18 = shl nuw nsw i64 %16, 1
  %19 = or disjoint i64 %18, 1
  store i64 %19, ptr %2, align 8, !tbaa !6
  %.not = icmp samesign ult i64 %12, %15
  %spec.select = select i1 %.not, i64 %12, i64 %17
  br label %55

20:                                               ; preds = %11
  %21 = sub nuw nsw i64 -4713, %9
  %22 = zext nneg i32 %6 to i64
  %23 = udiv i64 %21, %22
  %24 = xor i64 %23, -1
  %25 = shl nsw i64 %24, 1
  %26 = or disjoint i64 %25, 1
  store i64 %26, ptr %2, align 8, !tbaa !6
  %27 = urem i64 %21, %22
  %28 = xor i64 %27, -1
  %29 = add nsw i64 %28, %22
  br label %55

.critedge:                                        ; preds = %8, %4
  %30 = tail call i64 (i64, i64, i32, ...) @rb_funcall(i64 noundef %0, i64 noundef 43, i32 noundef 1, i64 noundef 9425) #21
  %.pr.i = load i64, ptr @decode_year.rbimpl_id, align 8, !tbaa !6
  %.not4.i = icmp eq i64 %.pr.i, 0
  br i1 %.not4.i, label %.lr.ph.i, label %rbimpl_intern_const.exit

.lr.ph.i:                                         ; preds = %.critedge, %.lr.ph.i
  %31 = tail call i64 @rb_intern2(ptr noundef nonnull @.str.161, i64 noundef 3) #21
  store i64 %31, ptr @decode_year.rbimpl_id, align 8, !tbaa !6
  %.not.i = icmp eq i64 %31, 0
  br i1 %.not.i, label %.lr.ph.i, label %rbimpl_intern_const.exit, !llvm.loop !51

rbimpl_intern_const.exit:                         ; preds = %.lr.ph.i, %.critedge
  %.lcssa.i = phi i64 [ %.pr.i, %.critedge ], [ %31, %.lr.ph.i ]
  %32 = shl nuw nsw i32 %6, 1
  %33 = or disjoint i32 %32, 1
  %34 = zext nneg i32 %33 to i64
  %35 = tail call i64 (i64, i64, i32, ...) @rb_funcall(i64 noundef %30, i64 noundef %.lcssa.i, i32 noundef 1, i64 noundef %34) #21
  store i64 %35, ptr %2, align 8, !tbaa !6
  %36 = icmp eq i64 %35, 0
  %37 = and i64 %35, 7
  %38 = icmp ne i64 %37, 0
  %39 = or i1 %36, %38
  br i1 %39, label %40, label %rb_type.exit.i

40:                                               ; preds = %rbimpl_intern_const.exit
  %41 = tail call i64 @llvm.fshl.i64(i64 %35, i64 %35, i64 62)
  switch i64 %41, label %42 [
    i64 0, label %f_zero_p.exit
    i64 1, label %f_zero_p.exit
    i64 5, label %f_zero_p.exit
    i64 9, label %f_zero_p.exit
  ]

42:                                               ; preds = %40
  %43 = and i64 %35, 1
  %.not.i.i = icmp eq i64 %43, 0
  br i1 %.not.i.i, label %f_zero_p.exit, label %rb_type.exit.thread8.i

rb_type.exit.i:                                   ; preds = %rbimpl_intern_const.exit
  %44 = inttoptr i64 %35 to ptr
  %45 = load i64, ptr %44, align 8, !tbaa !35
  %46 = trunc i64 %45 to i32
  %47 = and i32 %46, 31
  switch i32 %47, label %f_zero_p.exit [
    i32 21, label %rb_type.exit.thread8.i
    i32 10, label %f_zero_p.exit.thread
    i32 15, label %49
  ]

rb_type.exit.thread8.i:                           ; preds = %rb_type.exit.i, %42
  %48 = icmp ult i64 %35, 2
  br i1 %48, label %f_zero_p.exit.thread43, label %f_zero_p.exit.thread

49:                                               ; preds = %rb_type.exit.i
  %50 = tail call i64 @rb_rational_num(i64 noundef %35) #24
  %or.cond = icmp eq i64 %50, 1
  br i1 %or.cond, label %f_zero_p.exit.thread43, label %f_zero_p.exit.thread

f_zero_p.exit:                                    ; preds = %40, %40, %40, %40, %42, %rb_type.exit.i
  %51 = load i64, ptr @id_eqeq_p, align 8, !tbaa !6
  %52 = tail call i64 (i64, i64, i32, ...) @rb_funcall(i64 noundef %35, i64 noundef %51, i32 noundef 1, i64 noundef 1) #21
  %.not35 = icmp eq i64 %52, 0
  br i1 %.not35, label %f_zero_p.exit.thread, label %f_zero_p.exit.thread43

f_zero_p.exit.thread:                             ; preds = %49, %rb_type.exit.i, %rb_type.exit.thread8.i, %f_zero_p.exit
  %53 = tail call i64 (i64, i64, i32, ...) @rb_funcall(i64 noundef %30, i64 noundef 37, i32 noundef 1, i64 noundef %34) #21
  br label %f_zero_p.exit.thread43

f_zero_p.exit.thread43:                           ; preds = %49, %rb_type.exit.thread8.i, %f_zero_p.exit.thread, %f_zero_p.exit
  %.0 = phi i64 [ %30, %f_zero_p.exit ], [ %53, %f_zero_p.exit.thread ], [ %30, %rb_type.exit.thread8.i ], [ %30, %49 ]
  %54 = tail call i64 @rb_fix2int(i64 noundef %.0) #21
  br label %55

55:                                               ; preds = %14, %20, %f_zero_p.exit.thread43
  %storemerge.in.in = phi i64 [ %54, %f_zero_p.exit.thread43 ], [ %29, %20 ], [ %spec.select, %14 ]
  %storemerge.in = trunc i64 %storemerge.in.in to i32
  %storemerge = add nsw i32 %storemerge.in, -4712
  store i32 %storemerge, ptr %3, align 4, !tbaa !33
  ret void
}